target datalayout = "e-m:e-p270:32:32-p271:32:32-p272:64:64-i64:64-i128:128-f80:128-n8:16:32:64-S128"
target triple = "x86_64-pc-linux-gnu"

@rb_stdout = external global i64, align 8
@rb_stderr = external global i64, align 8
@.str.105 = private unnamed_addr constant [7 x i8] c"daemon\00", align 1
@.str.249 = private unnamed_addr constant [8 x i8] c"noclose\00", align 1
@.str.250 = private unnamed_addr constant [8 x i8] c"nochdir\00", align 1
@.str.251 = private unnamed_addr constant [2 x i8] c"/\00", align 1
@ruby_null_device = external constant [0 x i8], align 1

; Function Attrs: inlinehint nounwind sspstrong willreturn memory(none) uwtable
define internal i64 @RB_INT2FIX(i64 noundef %0) #4 {
  %2 = alloca i64, align 8
  %3 = alloca i64, align 8
  %4 = alloca i64, align 8
  %5 = alloca i64, align 8
  %6 = alloca i64, align 8
  %7 = alloca i64, align 8
  store i64 %0, ptr %2, align 8, !tbaa !35
  call void @llvm.lifetime.start.p0(i64 8, ptr %3) #27
  %8 = load i64, ptr %2, align 8, !tbaa !35
  store i64 %8, ptr %3, align 8, !tbaa !35
  call void @llvm.lifetime.start.p0(i64 8, ptr %4) #27
  %9 = load i64, ptr %3, align 8, !tbaa !35
  %10 = shl i64 %9, 1
  %11 = add i64 %10, 1
  store i64 %11, ptr %4, align 8, !tbaa !35
  call void @llvm.lifetime.start.p0(i64 8, ptr %5) #27
  %12 = load i64, ptr %4, align 8, !tbaa !35
  store i64 %12, ptr %5, align 8, !tbaa !35
  call void @llvm.lifetime.start.p0(i64 8, ptr %6) #27
  %13 = load i64, ptr %5, align 8, !tbaa !35
  store i64 %13, ptr %6, align 8, !tbaa !35
  call void @llvm.lifetime.start.p0(i64 8, ptr %7) #27
  %14 = load i64, ptr %6, align 8, !tbaa !35
  store i64 %14, ptr %7, align 8, !tbaa !35
  %15 = load i64, ptr %7, align 8, !tbaa !35
  call void @llvm.lifetime.end.p0(i64 8, ptr %7) #27
  call void @llvm.lifetime.end.p0(i64 8, ptr %6) #27
  call void @llvm.lifetime.end.p0(i64 8, ptr %5) #27
  call void @llvm.lifetime.end.p0(i64 8, ptr %4) #27
  call void @llvm.lifetime.end.p0(i64 8, ptr %3) #27
  ret i64 %15
}

; Function Attrs: nounwind sspstrong uwtable
define internal i32 @rb_daemon(i32 noundef %0, i32 noundef %1) #0 {
  %3 = alloca i32, align 4
  %4 = alloca i32, align 4
  %5 = alloca i32, align 4
  %6 = alloca i32, align 4
  %7 = alloca i32, align 4
  %8 = alloca i32, align 4
  store i32 %0, ptr %4, align 4, !tbaa !34
  store i32 %1, ptr %5, align 4, !tbaa !34
  call void @llvm.lifetime.start.p0(i64 4, ptr %6) #27
  store i32 0, ptr %6, align 4, !tbaa !34
  call void @llvm.lifetime.start.p0(i64 4, ptr %7) #27
  %9 = call i32 @rb_fork_ruby(ptr noundef null)
  switch i32 %9, label %11 [
    i32 -1, label %10
    i32 0, label %12
  ]

10:                                               ; preds = %2
  store i32 -1, ptr %3, align 4
  store i32 1, ptr %8, align 4
  br label %43

11:                                               ; preds = %2
  call void @_exit(i32 noundef 0) #30
  unreachable

12:                                               ; preds = %2
  %13 = call i32 @setsid() #27
  %14 = icmp slt i32 %13, 0
  br i1 %14, label %15, label %16

15:                                               ; preds = %12
  br label %16

16:                                               ; preds = %15, %12
  %17 = load i32, ptr %4, align 4, !tbaa !34
  %18 = icmp ne i32 %17, 0
  br i1 %18, label %21, label %19

19:                                               ; preds = %16
  %20 = call i32 @chdir(ptr noundef @.str.251) #27
  store i32 %20, ptr %6, align 4, !tbaa !34
  br label %21

21:                                               ; preds = %19, %16
  %22 = load i32, ptr %5, align 4, !tbaa !34
  %23 = icmp ne i32 %22, 0
  br i1 %23, label %41, label %24

24:                                               ; preds = %21
  %25 = call i32 @rb_cloexec_open(ptr noundef @ruby_null_device, i32 noundef 2, i32 noundef 0)
  store i32 %25, ptr %7, align 4, !tbaa !34
  %26 = icmp ne i32 %25, -1
  br i1 %26, label %27, label %41

27:                                               ; preds = %24
  %28 = load i32, ptr %7, align 4, !tbaa !34
  call void @rb_update_max_fd(i32 noundef %28)
  %29 = load i32, ptr %7, align 4, !tbaa !34
  %30 = call i32 @dup2(i32 noundef %29, i32 noundef 0) #27
  %31 = load i32, ptr %7, align 4, !tbaa !34
  %32 = call i32 @dup2(i32 noundef %31, i32 noundef 1) #27
  %33 = load i32, ptr %7, align 4, !tbaa !34
  %34 = call i32 @dup2(i32 noundef %33, i32 noundef 2) #27
  %35 = load i32, ptr %7, align 4, !tbaa !34
  %36 = icmp sgt i32 %35, 2
  br i1 %36, label %37, label %40

37:                                               ; preds = %27
  %38 = load i32, ptr %7, align 4, !tbaa !34
  %39 = call i32 @close(i32 noundef %38)
  br label %40

40:                                               ; preds = %37, %27
  br label %41

41:                                               ; preds = %40, %24, %21
  %42 = load i32, ptr %6, align 4, !tbaa !34
  store i32 %42, ptr %3, align 4
  store i32 1, ptr %8, align 4
  br label %43

43:                                               ; preds = %41, %10
  call void @llvm.lifetime.end.p0(i64 4, ptr %7) #27
  call void @llvm.lifetime.end.p0(i64 4, ptr %6) #27
  %44 = load i32, ptr %3, align 4
  ret i32 %44
}

; Function Attrs: inlinehint nounwind sspstrong willreturn memory(none) uwtable
define internal zeroext i1 @RB_NIL_P(i64 noundef %0) #4 {
  %2 = alloca i64, align 8
  store i64 %0, ptr %2, align 8, !tbaa !35
  %3 = load i64, ptr %2, align 8, !tbaa !35
  %4 = icmp eq i64 %3, 4
  ret i1 %4
}

; Function Attrs: inlinehint nounwind sspstrong uwtable
define internal i32 @rb_check_arity(i32 noundef %0, i32 noundef %1, i32 noundef %2) #1 {
  %4 = alloca i32, align 4
  %5 = alloca i32, align 4
  %6 = alloca i32, align 4
  store i32 %0, ptr %4, align 4, !tbaa !34
  store i32 %1, ptr %5, align 4, !tbaa !34
  store i32 %2, ptr %6, align 4, !tbaa !34
  %7 = load i32, ptr %4, align 4, !tbaa !34
  %8 = load i32, ptr %5, align 4, !tbaa !34
  %9 = icmp slt i32 %7, %8
  br i1 %9, label %17, label %10

10:                                               ; preds = %3
  %11 = load i32, ptr %6, align 4, !tbaa !34
  %12 = icmp ne i32 %11, -1
  br i1 %12, label %13, label %21

13:                                               ; preds = %10
  %14 = load i32, ptr %4, align 4, !tbaa !34
  %15 = load i32, ptr %6, align 4, !tbaa !34
  %16 = icmp sgt i32 %14, %15
  br i1 %16, label %17, label %21

17:                                               ; preds = %13, %3
  %18 = load i32, ptr %4, align 4, !tbaa !34
  %19 = load i32, ptr %5, align 4, !tbaa !34
  %20 = load i32, ptr %6, align 4, !tbaa !34
  call void @rb_error_arity(i32 noundef %18, i32 noundef %19, i32 noundef %20) #30
  unreachable

21:                                               ; preds = %13, %10
  %22 = load i32, ptr %4, align 4, !tbaa !34
  ret i32 %22
}

; Function Attrs: nounwind sspstrong uwtable
define internal i64 @proc_daemon(i32 noundef %0, ptr noundef %1, i64 noundef %2) #0 {
  %4 = alloca i32, align 4
  %5 = alloca ptr, align 8
  %6 = alloca i64, align 8
  %7 = alloca i32, align 4
  %8 = alloca i32, align 4
  %9 = alloca i32, align 4
  %10 = alloca i32, align 4
  store i32 %0, ptr %4, align 4, !tbaa !34
  store ptr %1, ptr %5, align 8, !tbaa !70
  store i64 %2, ptr %6, align 8, !tbaa !35
  call void @llvm.lifetime.start.p0(i64 4, ptr %7) #27
  call void @llvm.lifetime.start.p0(i64 4, ptr %8) #27
  store i32 0, ptr %8, align 4, !tbaa !34
  call void @llvm.lifetime.start.p0(i64 4, ptr %9) #27
  store i32 0, ptr %9, align 4, !tbaa !34
  %11 = load i32, ptr %4, align 4, !tbaa !34
  %12 = call i32 @rb_check_arity(i32 noundef %11, i32 noundef 0, i32 noundef 2)
  switch i32 %12, label %39 [
    i32 2, label %13
    i32 1, label %26
  ]

13:                                               ; preds = %3
  %14 = load ptr, ptr %5, align 8, !tbaa !70
  %15 = getelementptr i64, ptr %14, i64 1
  %16 = load i64, ptr %15, align 8, !tbaa !35
  %17 = call zeroext i1 @RB_NIL_P(i64 noundef %16) #28
  br i1 %17, label %18, label %19

18:                                               ; preds = %13
  br label %24

19:                                               ; preds = %13
  %20 = load ptr, ptr %5, align 8, !tbaa !70
  %21 = getelementptr i64, ptr %20, i64 1
  %22 = load i64, ptr %21, align 8, !tbaa !35
  %23 = call i32 @rb_bool_expected(i64 noundef %22, ptr noundef @.str.249, i32 noundef 1)
  br label %24

24:                                               ; preds = %19, %18
  %25 = phi i32 [ 0, %18 ], [ %23, %19 ]
  store i32 %25, ptr %9, align 4, !tbaa !34
  br label %26

26:                                               ; preds = %3, %24
  %27 = load ptr, ptr %5, align 8, !tbaa !70
  %28 = getelementptr i64, ptr %27, i64 0
  %29 = load i64, ptr %28, align 8, !tbaa !35
  %30 = call zeroext i1 @RB_NIL_P(i64 noundef %29) #28
  br i1 %30, label %31, label %32

31:                                               ; preds = %26
  br label %37

32:                                               ; preds = %26
  %33 = load ptr, ptr %5, align 8, !tbaa !70
  %34 = getelementptr i64, ptr %33, i64 0
  %35 = load i64, ptr %34, align 8, !tbaa !35
  %36 = call i32 @rb_bool_expected(i64 noundef %35, ptr noundef @.str.250, i32 noundef 1)
  br label %37

37:                                               ; preds = %32, %31
  %38 = phi i32 [ 0, %31 ], [ %36, %32 ]
  store i32 %38, ptr %8, align 4, !tbaa !34
  br label %39

39:                                               ; preds = %37, %3
  %40 = load i64, ptr @rb_stdout, align 8, !tbaa !35
  %41 = call i64 @rb_io_flush(i64 noundef %40)
  %42 = load i64, ptr @rb_stderr, align 8, !tbaa !35
  %43 = call i64 @rb_io_flush(i64 noundef %42)
  %44 = load i32, ptr %8, align 4, !tbaa !34
  %45 = load i32, ptr %9, align 4, !tbaa !34
  %46 = call i32 @rb_daemon(i32 noundef %44, i32 noundef %45)
  store i32 %46, ptr %7, align 4, !tbaa !34
  %47 = load i32, ptr %7, align 4, !tbaa !34
  %48 = icmp slt i32 %47, 0
  br i1 %48, label %49, label %56

49:                                               ; preds = %39
  br label %50

50:                                               ; preds = %49
  call void @llvm.lifetime.start.p0(i64 4, ptr %10) #27
  %51 = call ptr @rb_errno_ptr()
  %52 = load i32, ptr %51, align 4, !tbaa !34
  store i32 %52, ptr %10, align 4, !tbaa !34
  %53 = load i32, ptr %10, align 4, !tbaa !34
  call void @rb_syserr_fail(i32 noundef %53, ptr noundef @.str.105) #30
  unreachable

54:                                               ; No predecessors!
  br label %55

55:                                               ; preds = %54
  br label %56

56:                                               ; preds = %55, %39
  %57 = load i32, ptr %7, align 4, !tbaa !34
  %58 = sext i32 %57 to i64
  %59 = call i64 @RB_INT2FIX(i64 noundef %58) #28
  call void @llvm.lifetime.end.p0(i64 4, ptr %9) #27
  call void @llvm.lifetime.end.p0(i64 4, ptr %8) #27
  call void @llvm.lifetime.end.p0(i64 4, ptr %7) #27
  ret i64 %59
}