; Function Attrs: nounwind sspstrong uwtable
define internal range(i64 1, 4294967296) i64 @proc_daemon(i32 noundef %0, ptr noundef readonly captures(none) %1, i64 %2) #1 {
  %or.cond = icmp ugt i32 %0, 2
  br i1 %or.cond, label %4, label %rb_check_arity.exit

4:                                                ; preds = %3
  tail call void @rb_error_arity(i32 noundef %0, i32 noundef 0, i32 noundef 2) #29
  unreachable

rb_check_arity.exit:                              ; preds = %3
  switch i32 %0, label %17 [
    i32 2, label %5
    i32 1, label %11
  ]

5:                                                ; preds = %rb_check_arity.exit
  %6 = getelementptr i8, ptr %1, i64 8
  %7 = load i64, ptr %6, align 8, !tbaa !43
  %8 = icmp eq i64 %7, 4
  br i1 %8, label %11, label %9

9:                                                ; preds = %5
  %10 = tail call i32 @rb_bool_expected(i64 noundef %7, ptr noundef nonnull @.str.249, i32 noundef 1) #27
  br label %11

11:                                               ; preds = %9, %5, %rb_check_arity.exit
  %.1 = phi i32 [ 0, %rb_check_arity.exit ], [ %10, %9 ], [ 0, %5 ]
  %12 = load i64, ptr %1, align 8, !tbaa !43
  %13 = icmp eq i64 %12, 4
  br i1 %13, label %17, label %14

14:                                               ; preds = %11
  %15 = tail call i32 @rb_bool_expected(i64 noundef %12, ptr noundef nonnull @.str.250, i32 noundef 1) #27
  %16 = icmp eq i32 %15, 0
  br label %17

17:                                               ; preds = %14, %11, %rb_check_arity.exit
  %.09 = phi i32 [ 0, %rb_check_arity.exit ], [ %.1, %11 ], [ %.1, %14 ]
  %.0 = phi i1 [ true, %rb_check_arity.exit ], [ true, %11 ], [ %16, %14 ]
  %18 = load i64, ptr @rb_stdout, align 8, !tbaa !43
  %19 = tail call i64 @rb_io_flush(i64 noundef %18) #27
  %20 = load i64, ptr @rb_stderr, align 8, !tbaa !43
  %21 = tail call i64 @rb_io_flush(i64 noundef %20) #27
  %22 = tail call i32 @rb_fork_ruby(ptr noundef null)
  switch i32 %22, label %23 [
    i32 -1, label %rb_daemon.exit.thread
    i32 0, label %24
  ]

23:                                               ; preds = %17
  tail call void @_exit(i32 noundef 0) #29
  unreachable

24:                                               ; preds = %17
  %25 = tail call i32 @setsid() #27
  br i1 %.0, label %26, label %28

26:                                               ; preds = %24
  %27 = tail call i32 @chdir(ptr noundef nonnull @.str.251) #27
  br label %28

28:                                               ; preds = %26, %24
  %.010.i = phi i32 [ 0, %24 ], [ %27, %26 ]
  %.not12.i = icmp eq i32 %.09, 0
  br i1 %.not12.i, label %29, label %rb_daemon.exit

29:                                               ; preds = %28
  %30 = tail call i32 @rb_cloexec_open(ptr noundef nonnull @ruby_null_device, i32 noundef 2, i32 noundef 0) #27
  %.not13.i = icmp eq i32 %30, -1
  br i1 %.not13.i, label %rb_daemon.exit, label %31

31:                                               ; preds = %29
  tail call void @rb_update_max_fd(i32 noundef %30) #27
  %32 = tail call i32 @dup2(i32 noundef %30, i32 noundef 0) #27
  %33 = tail call i32 @dup2(i32 noundef %30, i32 noundef 1) #27
  %34 = tail call i32 @dup2(i32 noundef %30, i32 noundef 2) #27
  %35 = icmp sgt i32 %30, 2
  br i1 %35, label %36, label %rb_daemon.exit

36:                                               ; preds = %31
  %37 = tail call i32 @close(i32 noundef %30) #27
  br label %rb_daemon.exit

rb_daemon.exit:                                   ; preds = %28, %29, %31, %36
  %38 = icmp slt i32 %.010.i, 0
  br i1 %38, label %rb_daemon.exit.thread, label %41

rb_daemon.exit.thread:                            ; preds = %17, %rb_daemon.exit
  %39 = tail call ptr @rb_errno_ptr() #27
  %40 = load i32, ptr %39, align 4, !tbaa !60
  tail call void @rb_syserr_fail(i32 noundef %40, ptr noundef nonnull @.str.105) #29
  unreachable

41:                                               ; preds = %rb_daemon.exit
  %42 = shl nuw i32 %.010.i, 1
  %43 = or disjoint i32 %42, 1
  %44 = zext i32 %43 to i64
  ret i64 %44
}